; Function Attrs: mustprogress uwtable
define hidden void @_ZN13array_factoryC2ER11ast_managerR10model_core(ptr noundef nonnull align 8 dereferenceable(104) %this, ptr noundef nonnull align 8 dereferenceable(976) %m, ptr noundef nonnull align 8 dereferenceable(96) %md) unnamed_addr #3 align 2 personality ptr @__gxx_personality_v0 {
entry:
  %ref.tmp.i = alloca %class.symbol, align 8
  call void @llvm.lifetime.start.p0(i64 8, ptr nonnull %ref.tmp.i)
  call void @_ZN6symbolC1EPKc(ptr noundef nonnull align 8 dereferenceable(8) %ref.tmp.i, ptr noundef nonnull @.str)
  %m_family_manager.i.i = getelementptr inbounds i8, ptr %m, i64 560
  %call.i.i = call noundef i32 @_ZN14family_manager12mk_family_idERK6symbol(ptr noundef nonnull align 8 dereferenceable(56) %m_family_manager.i.i, ptr noundef nonnull align 8 dereferenceable(8) %ref.tmp.i)
  call void @llvm.lifetime.end.p0(i64 8, ptr nonnull %ref.tmp.i)
  call void @_ZN14struct_factoryC2ER11ast_manageriR10model_core(ptr noundef nonnull align 8 dereferenceable(96) %this, ptr noundef nonnull align 8 dereferenceable(976) %m, i32 noundef %call.i.i, ptr noundef nonnull align 8 dereferenceable(96) %md)
  store ptr getelementptr inbounds ({ [8 x ptr] }, ptr @_ZTV13array_factory, i64 0, i32 0, i64 2), ptr %this, align 8
  %m_ranges = getelementptr inbounds i8, ptr %this, i64 96
  store ptr null, ptr %m_ranges, align 8
  ret void
}